target datalayout = "e-m:e-p270:32:32-p271:32:32-p272:64:64-i64:64-i128:128-f80:128-n8:16:32:64-S128"
target triple = "x86_64-pc-linux-gnu"

%class.VectorSet = type { i32, ptr, i32, ptr }
%class.SuperWordVTransformBuilder = type { ptr, ptr, ptr, ptr, %class.ResourceHashtable }
%class.ResourceHashtable = type { %class.ResourceHashtableBase.base, [4 x i8] }
%class.ResourceHashtableBase.base = type <{ %class.FixedResourceHashtableStorage, i32 }>
%class.FixedResourceHashtableStorage = type { [256 x ptr] }
%class.PackSet = type { ptr, ptr, %class.GrowableArray, %class.GrowableArray }
%class.GrowableArray = type { %class.GrowableArrayWithAllocator, %class.GrowableArrayMetadata }
%class.GrowableArrayWithAllocator = type { %class.GrowableArrayView }
%class.GrowableArrayView = type { %class.GrowableArrayBase, ptr }
%class.GrowableArrayBase = type { i32, i32 }
%class.GrowableArrayMetadata = type { i64 }
%class.Node_List = type <{ %class.Node_Array, i32, [4 x i8] }>
%class.Node_Array = type { ptr, i32, ptr }
%class.Node = type <{ ptr, ptr, ptr, i32, i32, i32, i32, i32, i32, i32, [4 x i8] }>
%class.ResourceHashtableBase = type <{ %class.FixedResourceHashtableStorage, i32, [4 x i8] }>
%class.ResourceHashtableNode = type { i32, i32, ptr, ptr }

; Function Attrs: mustprogress nounwind uwtable
define linkonce_odr hidden noundef ptr @_ZNK29FixedResourceHashtableStorageILj256EiP14VTransformNodeE5tableEv(ptr noundef nonnull align 8 dereferenceable(2048) %0) #1 comdat align 2 {
  %2 = alloca ptr, align 8
  store ptr %0, ptr %2, align 8
  %3 = load ptr, ptr %2, align 8
  %4 = getelementptr inbounds %class.FixedResourceHashtableStorage, ptr %3, i32 0, i32 0
  %5 = getelementptr inbounds [256 x ptr], ptr %4, i64 0, i64 0
  ret ptr %5
}

; Function Attrs: mustprogress nounwind uwtable
define linkonce_odr hidden noundef ptr @_ZNK21ResourceHashtableBaseI29FixedResourceHashtableStorageILj256EiP14VTransformNodeEiS2_LN6AnyObj15allocation_typeE1EL8MEMFLAGS9EXadL_Z14primitive_hashIiEjRKT_EEXadL_Z16primitive_equalsIiEbSA_SA_EEE5tableEv(ptr noundef nonnull align 8 dereferenceable(2052) %0) #1 comdat align 2 {
  %2 = alloca ptr, align 8
  store ptr %0, ptr %2, align 8
  %3 = load ptr, ptr %2, align 8
  %4 = call noundef ptr @_ZNK29FixedResourceHashtableStorageILj256EiP14VTransformNodeE5tableEv(ptr noundef nonnull align 8 dereferenceable(2048) %3)
  ret ptr %4
}

; Function Attrs: mustprogress nounwind uwtable
define linkonce_odr hidden noundef i32 @_ZNK29FixedResourceHashtableStorageILj256EiP14VTransformNodeE10table_sizeEv(ptr noundef nonnull align 8 dereferenceable(2048) %0) #1 comdat align 2 {
  %2 = alloca ptr, align 8
  store ptr %0, ptr %2, align 8
  ret i32 256
}

; Function Attrs: mustprogress nounwind uwtable
define linkonce_odr hidden void @_ZN21ResourceHashtableNodeIiP14VTransformNodeEC2EjRKiRKS1_PS2_(ptr noundef nonnull align 8 dereferenceable(24) %0, i32 noundef %1, ptr noundef nonnull align 4 dereferenceable(4) %2, ptr noundef nonnull align 8 dereferenceable(8) %3, ptr noundef %4) unnamed_addr #1 comdat align 2 {
  %6 = alloca ptr, align 8
  %7 = alloca i32, align 4
  %8 = alloca ptr, align 8
  %9 = alloca ptr, align 8
  %10 = alloca ptr, align 8
  store ptr %0, ptr %6, align 8
  store i32 %1, ptr %7, align 4
  store ptr %2, ptr %8, align 8
  store ptr %3, ptr %9, align 8
  store ptr %4, ptr %10, align 8
  %11 = load ptr, ptr %6, align 8
  %12 = getelementptr inbounds %class.ResourceHashtableNode, ptr %11, i32 0, i32 0
  %13 = load i32, ptr %7, align 4
  store i32 %13, ptr %12, align 8
  %14 = getelementptr inbounds %class.ResourceHashtableNode, ptr %11, i32 0, i32 1
  %15 = load ptr, ptr %8, align 8
  %16 = load i32, ptr %15, align 4
  store i32 %16, ptr %14, align 4
  %17 = getelementptr inbounds %class.ResourceHashtableNode, ptr %11, i32 0, i32 2
  %18 = load ptr, ptr %9, align 8
  %19 = load ptr, ptr %18, align 8
  store ptr %19, ptr %17, align 8
  %20 = getelementptr inbounds %class.ResourceHashtableNode, ptr %11, i32 0, i32 3
  %21 = load ptr, ptr %10, align 8
  store ptr %21, ptr %20, align 8
  ret void
}

; Function Attrs: mustprogress nounwind uwtable
define linkonce_odr hidden noundef ptr @_ZN6AnyObjnwEm(i64 noundef %0) #1 comdat align 2 {
  %2 = alloca i64, align 8
  %3 = alloca ptr, align 8
  store i64 %0, ptr %2, align 8
  %4 = load i64, ptr %2, align 8
  %5 = call noundef ptr @_Z23resource_allocate_bytesmN17AllocFailStrategy13AllocFailEnumE(i64 noundef %4, i32 noundef 0)
  store ptr %5, ptr %3, align 8
  %6 = load ptr, ptr %3, align 8
  ret ptr %6
}

; Function Attrs: mustprogress nounwind uwtable
define linkonce_odr hidden noundef ptr @_ZN21ResourceHashtableBaseI29FixedResourceHashtableStorageILj256EiP14VTransformNodeEiS2_LN6AnyObj15allocation_typeE1EL8MEMFLAGS9EXadL_Z14primitive_hashIiEjRKT_EEXadL_Z16primitive_equalsIiEbSA_SA_EEE9bucket_atEj(ptr noundef nonnull align 8 dereferenceable(2052) %0, i32 noundef %1) #1 comdat align 2 {
  %3 = alloca ptr, align 8
  %4 = alloca i32, align 4
  %5 = alloca ptr, align 8
  store ptr %0, ptr %3, align 8
  store i32 %1, ptr %4, align 4
  %6 = load ptr, ptr %3, align 8
  %7 = call noundef ptr @_ZNK21ResourceHashtableBaseI29FixedResourceHashtableStorageILj256EiP14VTransformNodeEiS2_LN6AnyObj15allocation_typeE1EL8MEMFLAGS9EXadL_Z14primitive_hashIiEjRKT_EEXadL_Z16primitive_equalsIiEbSA_SA_EEE5tableEv(ptr noundef nonnull align 8 dereferenceable(2052) %6)
  store ptr %7, ptr %5, align 8
  %8 = load ptr, ptr %5, align 8
  %9 = load i32, ptr %4, align 4
  %10 = zext i32 %9 to i64
  %11 = getelementptr inbounds ptr, ptr %8, i64 %10
  ret ptr %11
}

; Function Attrs: mustprogress nounwind uwtable
define linkonce_odr hidden noundef i32 @_ZNK21ResourceHashtableBaseI29FixedResourceHashtableStorageILj256EiP14VTransformNodeEiS2_LN6AnyObj15allocation_typeE1EL8MEMFLAGS9EXadL_Z14primitive_hashIiEjRKT_EEXadL_Z16primitive_equalsIiEbSA_SA_EEE10table_sizeEv(ptr noundef nonnull align 8 dereferenceable(2052) %0) #1 comdat align 2 {
  %2 = alloca ptr, align 8
  store ptr %0, ptr %2, align 8
  %3 = load ptr, ptr %2, align 8
  %4 = call noundef i32 @_ZNK29FixedResourceHashtableStorageILj256EiP14VTransformNodeE10table_sizeEv(ptr noundef nonnull align 8 dereferenceable(2048) %3)
  ret i32 %4
}

; Function Attrs: mustprogress nounwind uwtable
define linkonce_odr hidden noundef i32 @_Z14primitive_hashIiEjRKT_(ptr noundef nonnull align 4 dereferenceable(4) %0) #1 comdat {
  %2 = alloca ptr, align 8
  %3 = alloca i32, align 4
  store ptr %0, ptr %2, align 8
  %4 = load ptr, ptr %2, align 8
  %5 = load i32, ptr %4, align 4
  %6 = sext i32 %5 to i64
  %7 = trunc i64 %6 to i32
  store i32 %7, ptr %3, align 4
  %8 = load i32, ptr %3, align 4
  %9 = load i32, ptr %3, align 4
  %10 = lshr i32 %9, 3
  %11 = xor i32 %8, %10
  ret i32 %11
}

; Function Attrs: mustprogress nounwind uwtable
define linkonce_odr hidden noundef zeroext i1 @_ZN21ResourceHashtableBaseI29FixedResourceHashtableStorageILj256EiP14VTransformNodeEiS2_LN6AnyObj15allocation_typeE1EL8MEMFLAGS9EXadL_Z14primitive_hashIiEjRKT_EEXadL_Z16primitive_equalsIiEbSA_SA_EEE15put_when_absentERKiRKS2_(ptr noundef nonnull align 8 dereferenceable(2052) %0, ptr noundef nonnull align 4 dereferenceable(4) %1, ptr noundef nonnull align 8 dereferenceable(8) %2) #1 comdat align 2 {
  %4 = alloca ptr, align 8
  %5 = alloca ptr, align 8
  %6 = alloca ptr, align 8
  %7 = alloca i32, align 4
  %8 = alloca i32, align 4
  %9 = alloca ptr, align 8
  store ptr %0, ptr %4, align 8
  store ptr %1, ptr %5, align 8
  store ptr %2, ptr %6, align 8
  %10 = load ptr, ptr %4, align 8
  %11 = load ptr, ptr %5, align 8
  %12 = call noundef i32 @_Z14primitive_hashIiEjRKT_(ptr noundef nonnull align 4 dereferenceable(4) %11)
  store i32 %12, ptr %7, align 4
  %13 = load i32, ptr %7, align 4
  %14 = call noundef i32 @_ZNK21ResourceHashtableBaseI29FixedResourceHashtableStorageILj256EiP14VTransformNodeEiS2_LN6AnyObj15allocation_typeE1EL8MEMFLAGS9EXadL_Z14primitive_hashIiEjRKT_EEXadL_Z16primitive_equalsIiEbSA_SA_EEE10table_sizeEv(ptr noundef nonnull align 8 dereferenceable(2052) %10)
  %15 = urem i32 %13, %14
  store i32 %15, ptr %8, align 4
  %16 = load i32, ptr %8, align 4
  %17 = call noundef ptr @_ZN21ResourceHashtableBaseI29FixedResourceHashtableStorageILj256EiP14VTransformNodeEiS2_LN6AnyObj15allocation_typeE1EL8MEMFLAGS9EXadL_Z14primitive_hashIiEjRKT_EEXadL_Z16primitive_equalsIiEbSA_SA_EEE9bucket_atEj(ptr noundef nonnull align 8 dereferenceable(2052) %10, i32 noundef %16)
  store ptr %17, ptr %9, align 8
  %18 = call noundef ptr @_ZN6AnyObjnwEm(i64 noundef 24)
  %19 = load i32, ptr %7, align 4
  %20 = load ptr, ptr %5, align 8
  %21 = load ptr, ptr %6, align 8
  %22 = load ptr, ptr %9, align 8
  %23 = load ptr, ptr %22, align 8
  call void @_ZN21ResourceHashtableNodeIiP14VTransformNodeEC2EjRKiRKS1_PS2_(ptr noundef nonnull align 8 dereferenceable(24) %18, i32 noundef %19, ptr noundef nonnull align 4 dereferenceable(4) %20, ptr noundef nonnull align 8 dereferenceable(8) %21, ptr noundef %23)
  %24 = load ptr, ptr %9, align 8
  store ptr %18, ptr %24, align 8
  %25 = getelementptr inbounds %class.ResourceHashtableBase, ptr %10, i32 0, i32 1
  %26 = load i32, ptr %25, align 8
  %27 = add nsw i32 %26, 1
  store i32 %27, ptr %25, align 8
  ret i1 true
}

; Function Attrs: mustprogress nounwind uwtable
define linkonce_odr hidden noundef nonnull align 8 dereferenceable(8) ptr @_ZNK17GrowableArrayViewIP9Node_ListE2atEi(ptr noundef nonnull align 8 dereferenceable(16) %0, i32 noundef %1) #1 comdat align 2 {
  %3 = alloca ptr, align 8
  %4 = alloca i32, align 4
  store ptr %0, ptr %3, align 8
  store i32 %1, ptr %4, align 4
  %5 = load ptr, ptr %3, align 8
  %6 = getelementptr inbounds %class.GrowableArrayView, ptr %5, i32 0, i32 1
  %7 = load ptr, ptr %6, align 8
  %8 = load i32, ptr %4, align 4
  %9 = sext i32 %8 to i64
  %10 = getelementptr inbounds ptr, ptr %7, i64 %9
  ret ptr %10
}

; Function Attrs: mustprogress nounwind uwtable
define linkonce_odr hidden noundef i32 @_ZNK17GrowableArrayBase6lengthEv(ptr noundef nonnull align 4 dereferenceable(8) %0) #1 comdat align 2 {
  %2 = alloca ptr, align 8
  store ptr %0, ptr %2, align 8
  %3 = load ptr, ptr %2, align 8
  %4 = getelementptr inbounds %class.GrowableArrayBase, ptr %3, i32 0, i32 0
  %5 = load i32, ptr %4, align 4
  ret i32 %5
}

; Function Attrs: mustprogress nounwind uwtable
define linkonce_odr hidden void @_ZN26SuperWordVTransformBuilder18map_node_to_vtnodeEP4NodeP14VTransformNode(ptr noundef nonnull align 8 dereferenceable(2088) %0, ptr noundef %1, ptr noundef %2) #1 comdat align 2 {
  %4 = alloca ptr, align 8
  %5 = alloca ptr, align 8
  %6 = alloca ptr, align 8
  %7 = alloca i32, align 4
  store ptr %0, ptr %4, align 8
  store ptr %1, ptr %5, align 8
  store ptr %2, ptr %6, align 8
  %8 = load ptr, ptr %4, align 8
  %9 = getelementptr inbounds %class.SuperWordVTransformBuilder, ptr %8, i32 0, i32 4
  %10 = load ptr, ptr %5, align 8
  %11 = getelementptr inbounds %class.Node, ptr %10, i32 0, i32 7
  %12 = load i32, ptr %11, align 8
  store i32 %12, ptr %7, align 4
  %13 = call noundef zeroext i1 @_ZN21ResourceHashtableBaseI29FixedResourceHashtableStorageILj256EiP14VTransformNodeEiS2_LN6AnyObj15allocation_typeE1EL8MEMFLAGS9EXadL_Z14primitive_hashIiEjRKT_EEXadL_Z16primitive_equalsIiEbSA_SA_EEE15put_when_absentERKiRKS2_(ptr noundef nonnull align 8 dereferenceable(2052) %9, ptr noundef nonnull align 4 dereferenceable(4) %7, ptr noundef nonnull align 8 dereferenceable(8) %6)
  ret void
}

; Function Attrs: mustprogress nounwind uwtable
define linkonce_odr hidden noundef ptr @_ZNK10Node_Array2atEj(ptr noundef nonnull align 8 dereferenceable(24) %0, i32 noundef %1) #1 comdat align 2 {
  %3 = alloca ptr, align 8
  %4 = alloca i32, align 4
  store ptr %0, ptr %3, align 8
  store i32 %1, ptr %4, align 4
  %5 = load ptr, ptr %3, align 8
  %6 = getelementptr inbounds %class.Node_Array, ptr %5, i32 0, i32 2
  %7 = load ptr, ptr %6, align 8
  %8 = load i32, ptr %4, align 4
  %9 = zext i32 %8 to i64
  %10 = getelementptr inbounds ptr, ptr %7, i64 %9
  %11 = load ptr, ptr %10, align 8
  ret ptr %11
}

; Function Attrs: mustprogress nounwind uwtable
define linkonce_odr hidden noundef i32 @_ZNK9Node_List4sizeEv(ptr noundef nonnull align 8 dereferenceable(28) %0) #1 comdat align 2 {
  %2 = alloca ptr, align 8
  store ptr %0, ptr %2, align 8
  %3 = load ptr, ptr %2, align 8
  %4 = getelementptr inbounds %class.Node_List, ptr %3, i32 0, i32 1
  %5 = load i32, ptr %4, align 8
  ret i32 %5
}

; Function Attrs: mustprogress nounwind uwtable
define linkonce_odr hidden noundef ptr @_ZNK7PackSet2atEi(ptr noundef nonnull align 8 dereferenceable(64) %0, i32 noundef %1) #1 comdat align 2 {
  %3 = alloca ptr, align 8
  %4 = alloca i32, align 4
  store ptr %0, ptr %3, align 8
  store i32 %1, ptr %4, align 4
  %5 = load ptr, ptr %3, align 8
  %6 = getelementptr inbounds %class.PackSet, ptr %5, i32 0, i32 2
  %7 = load i32, ptr %4, align 4
  %8 = call noundef nonnull align 8 dereferenceable(8) ptr @_ZNK17GrowableArrayViewIP9Node_ListE2atEi(ptr noundef nonnull align 8 dereferenceable(16) %6, i32 noundef %7)
  %9 = load ptr, ptr %8, align 8
  ret ptr %9
}

; Function Attrs: mustprogress nounwind uwtable
define linkonce_odr hidden noundef i32 @_ZNK7PackSet6lengthEv(ptr noundef nonnull align 8 dereferenceable(64) %0) #1 comdat align 2 {
  %2 = alloca ptr, align 8
  store ptr %0, ptr %2, align 8
  %3 = load ptr, ptr %2, align 8
  %4 = getelementptr inbounds %class.PackSet, ptr %3, i32 0, i32 2
  %5 = call noundef i32 @_ZNK17GrowableArrayBase6lengthEv(ptr noundef nonnull align 4 dereferenceable(8) %4)
  ret i32 %5
}

; Function Attrs: mustprogress nounwind uwtable
define linkonce_odr hidden void @_ZN9VectorSetD2Ev(ptr noundef nonnull align 8 dereferenceable(32) %0) unnamed_addr #1 comdat align 2 {
  %2 = alloca ptr, align 8
  store ptr %0, ptr %2, align 8
  ret void
}

; Function Attrs: mustprogress nounwind uwtable
define hidden void @_ZN26SuperWordVTransformBuilder37build_vector_vtnodes_for_packed_nodesEv(ptr noundef nonnull align 8 dereferenceable(2088) %0) #1 align 2 {
  %2 = alloca ptr, align 8
  %3 = alloca i32, align 4
  %4 = alloca ptr, align 8
  %5 = alloca ptr, align 8
  %6 = alloca i32, align 4
  store ptr %0, ptr %2, align 8
  %7 = load ptr, ptr %2, align 8
  store i32 0, ptr %3, align 4
  br label %8

8:                                                ; preds = %35, %1
  %9 = load i32, ptr %3, align 4
  %10 = getelementptr inbounds %class.SuperWordVTransformBuilder, ptr %7, i32 0, i32 2
  %11 = load ptr, ptr %10, align 8
  %12 = call noundef i32 @_ZNK7PackSet6lengthEv(ptr noundef nonnull align 8 dereferenceable(64) %11)
  %13 = icmp slt i32 %9, %12
  br i1 %13, label %14, label %38

14:                                               ; preds = %8
  %15 = getelementptr inbounds %class.SuperWordVTransformBuilder, ptr %7, i32 0, i32 2
  %16 = load ptr, ptr %15, align 8
  %17 = load i32, ptr %3, align 4
  %18 = call noundef ptr @_ZNK7PackSet2atEi(ptr noundef nonnull align 8 dereferenceable(64) %16, i32 noundef %17)
  store ptr %18, ptr %4, align 8
  %19 = load ptr, ptr %4, align 8
  %20 = call noundef ptr @_ZNK26SuperWordVTransformBuilder27make_vector_vtnode_for_packEPK9Node_List(ptr noundef nonnull align 8 dereferenceable(2088) %7, ptr noundef %19)
  store ptr %20, ptr %5, align 8
  store i32 0, ptr %6, align 4
  br label %21

21:                                               ; preds = %31, %14
  %22 = load i32, ptr %6, align 4
  %23 = load ptr, ptr %4, align 8
  %24 = call noundef i32 @_ZNK9Node_List4sizeEv(ptr noundef nonnull align 8 dereferenceable(28) %23)
  %25 = icmp ult i32 %22, %24
  br i1 %25, label %26, label %34

26:                                               ; preds = %21
  %27 = load ptr, ptr %4, align 8
  %28 = load i32, ptr %6, align 4
  %29 = call noundef ptr @_ZNK10Node_Array2atEj(ptr noundef nonnull align 8 dereferenceable(24) %27, i32 noundef %28)
  %30 = load ptr, ptr %5, align 8
  call void @_ZN26SuperWordVTransformBuilder18map_node_to_vtnodeEP4NodeP14VTransformNode(ptr noundef nonnull align 8 dereferenceable(2088) %7, ptr noundef %29, ptr noundef %30)
  br label %31

31:                                               ; preds = %26
  %32 = load i32, ptr %6, align 4
  %33 = add i32 %32, 1
  store i32 %33, ptr %6, align 4
  br label %21, !llvm.loop !6

34:                                               ; preds = %21
  br label %35

35:                                               ; preds = %34
  %36 = load i32, ptr %3, align 4
  %37 = add nsw i32 %36, 1
  store i32 %37, ptr %3, align 4
  br label %8, !llvm.loop !8

38:                                               ; preds = %8
  ret void
}

; Function Attrs: mustprogress nounwind uwtable
define hidden void @_ZN26SuperWordVTransformBuilder5buildEv(ptr noundef nonnull align 8 dereferenceable(2088) %0) #1 align 2 {
  %2 = alloca ptr, align 8
  %3 = alloca %class.VectorSet, align 8
  store ptr %0, ptr %2, align 8
  %4 = load ptr, ptr %2, align 8
  call void @_ZN26SuperWordVTransformBuilder37build_vector_vtnodes_for_packed_nodesEv(ptr noundef nonnull align 8 dereferenceable(2088) %4)
  call void @_ZN26SuperWordVTransformBuilder41build_scalar_vtnodes_for_non_packed_nodesEv(ptr noundef nonnull align 8 dereferenceable(2088) %4)
  call void @_ZN9VectorSetC1Ev(ptr noundef nonnull align 8 dereferenceable(32) %3)
  call void @_ZN26SuperWordVTransformBuilder31build_inputs_for_vector_vtnodesER9VectorSet(ptr noundef nonnull align 8 dereferenceable(2088) %4, ptr noundef nonnull align 8 dereferenceable(32) %3)
  call void @_ZN26SuperWordVTransformBuilder31build_inputs_for_scalar_vtnodesER9VectorSet(ptr noundef nonnull align 8 dereferenceable(2088) %4, ptr noundef nonnull align 8 dereferenceable(32) %3)
  call void @_ZN9VectorSetD2Ev(ptr noundef nonnull align 8 dereferenceable(32) %3) #8
  ret void
}