; Function Attrs: mustprogress nounwind uwtable
define hidden void @_ZN26SuperWordVTransformBuilder5buildEv(ptr nocapture noundef nonnull align 8 dereferenceable(2088) %0) local_unnamed_addr #0 align 2 {
  %2 = alloca %class.VectorSet, align 8
  %3 = getelementptr inbounds i8, ptr %0, i64 16
  %4 = load ptr, ptr %3, align 8
  %5 = getelementptr inbounds i8, ptr %4, i64 16
  %6 = load i32, ptr %5, align 4
  %7 = icmp sgt i32 %6, 0
  br i1 %7, label %.lr.ph14.i, label %_ZN26SuperWordVTransformBuilder37build_vector_vtnodes_for_packed_nodesEv.exit

.lr.ph14.i:                                       ; preds = %1
  %8 = getelementptr inbounds i8, ptr %0, i64 32
  %9 = getelementptr inbounds i8, ptr %0, i64 2080
  br label %10

10:                                               ; preds = %._crit_edge.i, %.lr.ph14.i
  %indvars.iv17.i = phi i64 [ 0, %.lr.ph14.i ], [ %indvars.iv.next18.i, %._crit_edge.i ]
  %11 = phi ptr [ %4, %.lr.ph14.i ], [ %41, %._crit_edge.i ]
  %12 = getelementptr inbounds i8, ptr %11, i64 24
  %13 = load ptr, ptr %12, align 8
  %14 = getelementptr inbounds ptr, ptr %13, i64 %indvars.iv17.i
  %15 = load ptr, ptr %14, align 8
  %16 = tail call noundef ptr @_ZNK26SuperWordVTransformBuilder27make_vector_vtnode_for_packEPK9Node_List(ptr noundef nonnull align 8 dereferenceable(2088) %0, ptr noundef %15)
  %17 = getelementptr inbounds i8, ptr %15, i64 24
  %18 = load i32, ptr %17, align 8
  %.not.i = icmp eq i32 %18, 0
  br i1 %.not.i, label %._crit_edge.i, label %.lr.ph.i

.lr.ph.i:                                         ; preds = %10
  %19 = getelementptr inbounds i8, ptr %15, i64 16
  br label %20

20:                                               ; preds = %20, %.lr.ph.i
  %indvars.iv.i = phi i64 [ 0, %.lr.ph.i ], [ %indvars.iv.next.i, %20 ]
  %21 = load ptr, ptr %19, align 8
  %22 = getelementptr inbounds ptr, ptr %21, i64 %indvars.iv.i
  %23 = load ptr, ptr %22, align 8
  %24 = getelementptr inbounds i8, ptr %23, i64 40
  %25 = load i32, ptr %24, align 8
  %26 = lshr i32 %25, 3
  %27 = xor i32 %26, %25
  %28 = and i32 %27, 255
  %29 = zext nneg i32 %28 to i64
  %30 = getelementptr inbounds ptr, ptr %8, i64 %29
  %31 = tail call noundef ptr @_Z23resource_allocate_bytesmN17AllocFailStrategy13AllocFailEnumE(i64 noundef 24, i32 noundef 0) #6
  %32 = load ptr, ptr %30, align 8
  store i32 %27, ptr %31, align 8
  %33 = getelementptr inbounds i8, ptr %31, i64 4
  store i32 %25, ptr %33, align 4
  %34 = getelementptr inbounds i8, ptr %31, i64 8
  store ptr %16, ptr %34, align 8
  %35 = getelementptr inbounds i8, ptr %31, i64 16
  store ptr %32, ptr %35, align 8
  store ptr %31, ptr %30, align 8
  %36 = load i32, ptr %9, align 8
  %37 = add nsw i32 %36, 1
  store i32 %37, ptr %9, align 8
  %indvars.iv.next.i = add nuw nsw i64 %indvars.iv.i, 1
  %38 = load i32, ptr %17, align 8
  %39 = zext i32 %38 to i64
  %40 = icmp ult i64 %indvars.iv.next.i, %39
  br i1 %40, label %20, label %._crit_edge.i, !llvm.loop !6

._crit_edge.i:                                    ; preds = %20, %10
  %indvars.iv.next18.i = add nuw nsw i64 %indvars.iv17.i, 1
  %41 = load ptr, ptr %3, align 8
  %42 = getelementptr inbounds i8, ptr %41, i64 16
  %43 = load i32, ptr %42, align 4
  %44 = sext i32 %43 to i64
  %45 = icmp slt i64 %indvars.iv.next18.i, %44
  br i1 %45, label %10, label %_ZN26SuperWordVTransformBuilder37build_vector_vtnodes_for_packed_nodesEv.exit, !llvm.loop !8

_ZN26SuperWordVTransformBuilder37build_vector_vtnodes_for_packed_nodesEv.exit: ; preds = %._crit_edge.i, %1
  tail call void @_ZN26SuperWordVTransformBuilder41build_scalar_vtnodes_for_non_packed_nodesEv(ptr noundef nonnull align 8 dereferenceable(2088) %0)
  call void @_ZN9VectorSetC1Ev(ptr noundef nonnull align 8 dereferenceable(32) %2) #6
  call void @_ZN26SuperWordVTransformBuilder31build_inputs_for_vector_vtnodesER9VectorSet(ptr noundef nonnull align 8 dereferenceable(2088) %0, ptr noundef nonnull align 8 dereferenceable(32) %2)
  call void @_ZN26SuperWordVTransformBuilder31build_inputs_for_scalar_vtnodesER9VectorSet(ptr noundef nonnull align 8 dereferenceable(2088) %0, ptr noundef nonnull align 8 dereferenceable(32) %2)
  ret void
}